target datalayout = "e-m:e-p270:32:32-p271:32:32-p272:64:64-i64:64-i128:128-f80:128-n8:16:32:64-S128"
target triple = "x86_64-pc-linux-gnu"

%struct.glob_args = type { ptr, ptr, ptr, i64, i64, ptr }

; Function Attrs: nounwind sspstrong uwtable
define internal i32 @rb_glob_caller(ptr noundef %0, i64 noundef %1, ptr noundef %2) #0 {
  %4 = alloca ptr, align 8
  %5 = alloca i64, align 8
  %6 = alloca ptr, align 8
  %7 = alloca i32, align 4
  %8 = alloca ptr, align 8
  store ptr %0, ptr %4, align 8, !tbaa !11
  store i64 %1, ptr %5, align 8, !tbaa !7
  store ptr %2, ptr %6, align 8, !tbaa !14
  call void @llvm.lifetime.start.p0(i64 4, ptr %7) #26
  call void @llvm.lifetime.start.p0(i64 8, ptr %8) #26
  %9 = load i64, ptr %5, align 8, !tbaa !7
  %10 = inttoptr i64 %9 to ptr
  store ptr %10, ptr %8, align 8, !tbaa !168
  %11 = load ptr, ptr %4, align 8, !tbaa !11
  %12 = load ptr, ptr %8, align 8, !tbaa !168
  %13 = getelementptr inbounds nuw %struct.glob_args, ptr %12, i32 0, i32 1
  store ptr %11, ptr %13, align 8, !tbaa !170
  %14 = load i64, ptr %5, align 8, !tbaa !7
  %15 = call i64 @rb_protect(ptr noundef @glob_func_caller, i64 noundef %14, ptr noundef %7)
  %16 = load i32, ptr %7, align 4, !tbaa !21
  call void @llvm.lifetime.end.p0(i64 8, ptr %8) #26
  call void @llvm.lifetime.end.p0(i64 4, ptr %7) #26
  ret i32 %16
}