; Function Attrs: nounwind sspstrong uwtable
define internal i32 @rb_glob_caller(ptr noundef %0, i64 noundef %1, ptr readnone captures(none) %2) #0 {
  %4 = alloca i32, align 4
  call void @llvm.lifetime.start.p0(i64 4, ptr nonnull %4) #22
  %5 = inttoptr i64 %1 to ptr
  %6 = getelementptr inbounds nuw i8, ptr %5, i64 8
  store ptr %0, ptr %6, align 8, !tbaa !184
  %7 = call i64 @rb_protect(ptr noundef nonnull @glob_func_caller, i64 noundef %1, ptr noundef nonnull %4) #22
  %8 = load i32, ptr %4, align 4, !tbaa !58
  call void @llvm.lifetime.end.p0(i64 4, ptr nonnull %4) #22
  ret i32 %8
}